; Function Attrs: mustprogress nofree norecurse nosync nounwind willreturn memory(read, inaccessiblemem: none) uwtable
define hidden noundef nonnull align 8 dereferenceable(64) ptr @_ZNK4cvc58internal6theory5arith6linear14ArithVariables13getLowerBoundEj(ptr nocapture noundef nonnull readonly align 8 dereferenceable(568) %this, i32 noundef %x) local_unnamed_addr #7 align 2 {
entry:
  %d_image.i.i = getelementptr inbounds i8, ptr %this, i64 48
  %conv.i.i = zext i32 %x to i64
  %0 = load ptr, ptr %d_image.i.i, align 8
  %d_lb.i = getelementptr inbounds %"class.cvc5::internal::theory::arith::linear::ArithVariables::VarInfo", ptr %0, i64 %conv.i.i, i32 3
  %1 = load ptr, ptr %d_lb.i, align 8
  %d_value.i = getelementptr inbounds i8, ptr %1, i64 8
  ret ptr %d_value.i
}